Certificate:
    Data:
        Version: 3 (0x2)
        Serial Number: 7 (0x7)
        Signature Algorithm: sha256WithRSAEncryption
        Issuer: C=PL, ST=Mazowieckie, L=Warsaw, O=org, OU=orgsec, CN=CA
        Validity
            Not Before: Oct 27 13:18:52 2022 GMT
            Not After : Oct 27 13:18:52 2023 GMT
        Subject: C=PL, ST=Mazowieckie, O=org, OU=orgsec, CN=webhook.webhook.svc
        Subject Public Key Info:
            Public Key Algorithm: rsaEncryption
                RSA Public-Key: (4096 bit)
                Modulus:
                    00:ec:49:33:ad:2c:eb:c0:27:e7:38:1f:15:9f:27:
                    27:0f:be:43:17:36:8a:46:cf:67:41:94:bc:87:84:
                    f6:49:ed:e3:2b:0b:00:25:99:49:e3:b5:bd:c7:24:
                    a0:fe:e9:ef:ff:85:c0:85:6f:5e:c5:f0:18:27:c8:
                    dd:46:01:49:77:f0:dd:78:ee:08:c1:b8:8e:37:1b:
                    77:10:5f:e8:0f:77:d3:d6:7f:08:12:52:8e:4a:c1:
                    85:10:a2:12:c2:93:b5:03:20:a5:0a:2d:e4:9c:ae:
                    30:65:b9:8e:8c:47:b0:d2:bc:d6:b9:a0:18:e0:9a:
                    23:6c:d3:28:0e:42:53:92:8f:9a:9a:55:16:61:ff:
                    64:5e:7a:6c:7f:56:3c:39:43:66:0d:7e:98:27:20:
                    47:23:e1:b4:6f:fc:bd:23:d1:f5:81:01:95:f9:e6:
                    eb:75:76:a6:87:42:5c:fc:f9:26:0e:35:d1:88:b4:
                    d9:58:62:1e:d0:2c:28:c0:85:f0:63:1a:4f:d9:b6:
                    cb:59:d8:6b:fa:4b:47:ad:f1:a5:ee:6e:85:a4:e1:
                    69:c8:71:78:27:08:f6:1b:75:60:c5:cb:f7:ae:fa:
                    83:01:4e:80:7e:f7:d5:fb:86:ec:9a:95:0a:00:33:
                    a8:fb:eb:df:51:de:3f:8c:e4:51:5f:b6:30:6d:ab:
                    83:f7:96:d1:03:26:07:42:11:ce:f4:34:c8:ab:2d:
                    c7:1c:76:a9:83:4a:4d:67:7a:7b:aa:57:2b:54:61:
                    62:e0:7c:05:09:fd:44:81:6c:a0:31:68:fc:29:8a:
                    a1:da:41:5d:3c:a7:7a:5b:c5:de:5e:0d:b3:28:e6:
                    64:72:ca:86:63:92:69:d7:5a:e0:e1:2d:c4:02:72:
                    39:ce:1b:91:92:ce:79:ec:e6:5f:5f:73:14:a2:d4:
                    20:d7:13:8c:30:dd:33:b6:11:43:2f:1f:2c:f1:07:
                    84:82:4f:bf:25:c9:b2:a5:33:e4:61:e8:fd:f1:0f:
                    ac:da:41:b4:07:0c:96:f6:f9:32:dd:ee:7f:4d:ef:
                    c3:20:5c:15:8f:bd:29:0f:8b:a2:67:27:b3:72:78:
                    a8:14:a7:5a:e7:db:65:79:29:3c:d6:2f:e9:0d:10:
                    ee:00:aa:4f:39:b0:e5:f3:3b:87:9f:57:49:0c:32:
                    8c:15:56:58:93:49:34:e1:18:c5:7d:da:cc:6f:e8:
                    78:a4:12:80:65:eb:d0:c6:34:5e:ef:e1:79:33:ba:
                    0d:b8:4e:4c:d1:11:e3:35:52:3c:96:28:04:1b:f2:
                    39:f8:c4:3f:c6:d5:23:20:b9:ca:31:56:4b:3d:61:
                    c9:4b:3b:f6:c0:60:25:f5:a5:00:f6:df:0e:39:52:
                    e6:ba:ab
                Exponent: 65537 (0x10001)
        X509v3 extensions:
            X509v3 Basic Constraints: 
                CA:FALSE
            X509v3 Key Usage: 
                Digital Signature, Key Encipherment
            Netscape Comment: 
                OpenSSL Generated Certificate
            X509v3 Subject Key Identifier: 
                D5:0B:9B:AF:3A:C2:66:C7:B8:D8:3E:9F:BB:2E:1E:76:9B:F7:62:B5
            X509v3 Authority Key Identifier: 
                keyid:EA:7D:23:BC:FA:0F:E1:4B:28:30:E0:2F:21:23:4D:8F:7E:E5:83:67

            X509v3 Subject Alternative Name: 
                DNS:webhook.webhook.svc
    Signature Algorithm: sha256WithRSAEncryption
         a9:3a:0c:c0:bc:67:51:ef:e5:b2:a1:eb:fb:e4:9e:be:56:2c:
         b2:2e:a7:6d:f5:70:a8:3c:14:4b:4a:55:28:1e:b7:a1:70:4c:
         ce:4c:9f:55:82:e6:73:69:6f:6d:b2:f4:fb:47:28:d7:83:75:
         5b:16:ed:5d:84:3f:7c:8e:26:a5:d5:18:8a:b0:42:74:48:55:
         35:6f:fa:c8:58:e2:f0:a6:b0:bd:80:e3:93:6e:17:02:11:2b:
         96:e1:3e:08:21:49:d4:4b:15:7b:a9:6e:d2:d7:6c:0c:0e:1f:
         1b:bd:15:88:58:8d:f4:37:e6:0c:b3:74:2e:49:f3:8f:7c:90:
         2a:63:48:ac:0f:48:33:92:a7:49:57:51:e1:12:2f:a0:1f:1f:
         63:79:73:87:62:27:f5:56:8b:31:b9:df:30:6d:1b:b2:1d:22:
         a3:4d:6a:a2:26:e9:b5:64:15:08:d3:07:44:cb:90:b6:32:c0:
         db:3c:c0:47:ea:f3:cc:ec:99:92:04:aa:64:b8:31:e0:bd:eb:
         e5:b0:2d:dc:76:65:f7:cb:2e:1d:93:57:97:a5:ef:e9:f0:7b:
         2c:9c:1e:49:1e:4a:dc:fb:55:e3:77:d7:1d:e9:af:f5:75:44:
         dc:9f:56:a1:89:ea:47:60:34:1b:83:4e:63:29:42:0f:6b:35:
         57:76:ef:0d:f0:04:e2:6d:75:a3:e1:90:0f:71:06:7f:8b:af:
         89:cf:a8:96:71:73:ef:4c:94:74:73:1f:0b:fe:a8:95:50:33:
         9e:8f:58:6c:c7:ab:bf:9a:06:60:50:c9:cc:8e:d1:89:dd:f8:
         7e:7e:47:f0:e9:ec:69:bd:2c:16:25:9a:f8:46:19:f7:09:2b:
         22:a8:46:aa:d8:b4:73:85:5a:3a:98:54:66:09:64:13:4b:81:
         0c:af:58:9f:0e:db:75:d2:25:33:3a:15:1c:6c:35:f9:a8:0a:
         ac:93:25:0e:71:c8:60:3e:0c:8e:13:75:cc:65:a4:33:e6:1e:
         29:b6:d7:da:bd:86:19:66:42:c7:03:a3:5a:7c:a1:9b:63:b8:
         40:05:33:12:ce:5d:96:fd:ff:e5:ce:5b:9b:3e:ba:44:88:09:
         6f:48:ba:d7:a0:cc:d3:22:ad:a1:ee:12:6a:10:61:59:71:04:
         b3:cc:eb:58:f7:5f:50:57:2b:86:e1:e0:ac:ba:52:2a:78:96:
         01:28:94:8f:e8:16:c8:78:75:c0:5f:a5:19:8f:88:58:ca:2c:
         d3:18:4c:b0:78:0d:f6:e4:bd:49:1c:46:fe:7e:1b:27:b1:e5:
         6f:59:2b:c1:ff:34:6f:2b:e2:77:51:1d:8d:d5:00:3c:b9:2d:
         d6:2a:58:13:32:71:2c:95
-----BEGIN CERTIFICATE-----
MIIF5TCCA82gAwIBAgIBBzANBgkqhkiG9w0BAQsFADBgMQswCQYDVQQGEwJQTDEU
MBIGA1UECAwLTWF6b3dpZWNraWUxDzANBgNVBAcMBldhcnNhdzEMMAoGA1UECgwD
b3JnMQ8wDQYDVQQLDAZvcmdzZWMxCzAJBgNVBAMMAkNBMB4XDTIyMTAyNzEzMTg1
MloXDTIzMTAyNzEzMTg1MlowYDELMAkGA1UEBhMCUEwxFDASBgNVBAgMC01hem93
aWVja2llMQwwCgYDVQQKDANvcmcxDzANBgNVBAsMBm9yZ3NlYzEcMBoGA1UEAwwT
d2ViaG9vay53ZWJob29rLnN2YzCCAiIwDQYJKoZIhvcNAQEBBQADggIPADCCAgoC
ggIBAOxJM60s68An5zgfFZ8nJw++Qxc2ikbPZ0GUvIeE9knt4ysLACWZSeO1vcck
oP7p7/+FwIVvXsXwGCfI3UYBSXfw3XjuCMG4jjcbdxBf6A9309Z/CBJSjkrBhRCi
EsKTtQMgpQot5JyuMGW5joxHsNK81rmgGOCaI2zTKA5CU5KPmppVFmH/ZF56bH9W
PDlDZg1+mCcgRyPhtG/8vSPR9YEBlfnm63V2podCXPz5Jg410Yi02VhiHtAsKMCF
8GMaT9m2y1nYa/pLR63xpe5uhaThachxeCcI9ht1YMXL9676gwFOgH731fuG7JqV
CgAzqPvr31HeP4zkUV+2MG2rg/eW0QMmB0IRzvQ0yKstxxx2qYNKTWd6e6pXK1Rh
YuB8BQn9RIFsoDFo/CmKodpBXTynelvF3l4NsyjmZHLKhmOSadda4OEtxAJyOc4b
kZLOeezmX19zFKLUINcTjDDdM7YRQy8fLPEHhIJPvyXJsqUz5GHo/fEPrNpBtAcM
lvb5Mt3uf03vwyBcFY+9KQ+Lomcns3J4qBSnWufbZXkpPNYv6Q0Q7gCqTzmw5fM7
h59XSQwyjBVWWJNJNOEYxX3azG/oeKQSgGXr0MY0Xu/heTO6DbhOTNER4zVSPJYo
BBvyOfjEP8bVIyC5yjFWSz1hyUs79sBgJfWlAPbfDjlS5rqrAgMBAAGjgakwgaYw
CQYDVR0TBAIwADALBgNVHQ8EBAMCBaAwLAYJYIZIAYb4QgENBB8WHU9wZW5TU0wg
R2VuZXJhdGVkIENlcnRpZmljYXRlMB0GA1UdDgQWBBTVC5uvOsJmx7jYPp+7Lh52
m/ditTAfBgNVHSMEGDAWgBTqfSO8+g/hSygw4C8hI02PfuWDZzAeBgNVHREEFzAV
ghN3ZWJob29rLndlYmhvb2suc3ZjMA0GCSqGSIb3DQEBCwUAA4ICAQCpOgzAvGdR
7+Wyoev75J6+ViyyLqdt9XCoPBRLSlUoHrehcEzOTJ9VguZzaW9tsvT7RyjXg3Vb
Fu1dhD98jial1RiKsEJ0SFU1b/rIWOLwprC9gOOTbhcCESuW4T4IIUnUSxV7qW7S
12wMDh8bvRWIWI30N+YMs3QuSfOPfJAqY0isD0gzkqdJV1HhEi+gHx9jeXOHYif1
Vosxud8wbRuyHSKjTWqiJum1ZBUI0wdEy5C2MsDbPMBH6vPM7JmSBKpkuDHgvevl
sC3cdmX3yy4dk1eXpe/p8HssnB5JHkrc+1Xjd9cd6a/1dUTcn1ahiepHYDQbg05j
KUIPazVXdu8N8ATibXWj4ZAPcQZ/i6+Jz6iWcXPvTJR0cx8L/qiVUDOej1hsx6u/
mgZgUMnMjtGJ3fh+fkfw6expvSwWJZr4Rhn3CSsiqEaq2LRzhVo6mFRmCWQTS4EM
r1ifDtt10iUzOhUcbDX5qAqskyUOcchgPgyOE3XMZaQz5h4pttfavYYZZkLHA6Na
fKGbY7hABTMSzl2W/f/lzlubPrpEiAlvSLrXoMzTIq2h7hJqEGFZcQSzzOtY919Q
VyuG4eCsulIqeJYBKJSP6BbIeHXAX6UZj4hYyizTGEyweA325L1JHEb+fhsnseVv
WSvB/zRvK+J3UR2N1QA8uS3WKlgTMnEslQ==
-----END CERTIFICATE-----
